target datalayout = "e-m:e-p270:32:32-p271:32:32-p272:64:64-i64:64-i128:128-f80:128-n8:16:32:64-S128"
target triple = "x86_64-pc-linux-gnu"

%struct.TupleTableSlotOps = type { i64, ptr, ptr, ptr, ptr, ptr, ptr, ptr, ptr, ptr, ptr, ptr, ptr }
%struct.TableFuncRoutine = type { ptr, ptr, ptr, ptr, ptr, ptr, ptr, ptr }
%struct.TableFuncScan = type { %struct.Scan, ptr }
%struct.Scan = type { %struct.Plan, i32 }
%struct.Plan = type { i32, i32, double, double, double, i32, i8, i8, i8, i32, ptr, ptr, ptr, ptr, ptr, ptr, ptr }
%struct.TableFuncScanState = type { %struct.ScanState, ptr, ptr, ptr, ptr, ptr, ptr, ptr, ptr, ptr, ptr, ptr, ptr, ptr, i64, ptr, ptr }
%struct.ScanState = type { %struct.PlanState, ptr, ptr, ptr }
%struct.PlanState = type { i32, ptr, ptr, ptr, ptr, ptr, ptr, ptr, ptr, ptr, ptr, ptr, ptr, ptr, ptr, ptr, ptr, ptr, i8, ptr, ptr, ptr, ptr, ptr, i8, i8, i8, i8, i8, i8, i8, i8 }
%struct.TableFunc = type { i32, i32, ptr, ptr, ptr, ptr, ptr, ptr, ptr, ptr, ptr, ptr, ptr, ptr, ptr, ptr, i32, i32 }
%struct.TupleDescData = type { i32, i32, i32, i32, ptr, [0 x %struct.CompactAttribute] }
%struct.CompactAttribute = type { i32, i16, i8, i8, i8, i8, i8, i8, i8 }
%struct.FormData_pg_attribute = type { i32, %struct.nameData, i32, i16, i16, i32, i16, i8, i8, i8, i8, i8, i8, i8, i8, i8, i8, i8, i16, i32 }
%struct.nameData = type { [64 x i8] }
%struct.FmgrInfo = type { ptr, i32, i16, i8, i8, i8, ptr, ptr, ptr }
%struct.Node = type { i32 }

@TTSOpsMinimalTuple = external constant %struct.TupleTableSlotOps, align 8
@XmlTableRoutine = external constant %struct.TableFuncRoutine, align 8
@JsonbTableRoutine = external constant %struct.TableFuncRoutine, align 8
@CurrentMemoryContext = external global ptr, align 8
@.str = private unnamed_addr constant [28 x i8] c"TableFunc per value context\00", align 1

; Function Attrs: inlinehint nounwind uwtable
define internal ptr @TupleDescAttr(ptr noundef %0, i32 noundef %1) #2 {
  %3 = alloca ptr, align 8
  %4 = alloca i32, align 4
  %5 = alloca ptr, align 8
  store ptr %0, ptr %3, align 8
  store i32 %1, ptr %4, align 4
  call void @llvm.lifetime.start.p0(i64 8, ptr %5) #9
  %6 = load ptr, ptr %3, align 8
  %7 = load ptr, ptr %3, align 8
  %8 = getelementptr inbounds nuw %struct.TupleDescData, ptr %7, i32 0, i32 0
  %9 = load i32, ptr %8, align 8
  %10 = sext i32 %9 to i64
  %11 = mul i64 %10, 16
  %12 = add i64 24, %11
  %13 = getelementptr inbounds nuw i8, ptr %6, i64 %12
  store ptr %13, ptr %5, align 8
  %14 = load ptr, ptr %5, align 8
  %15 = load i32, ptr %4, align 4
  %16 = sext i32 %15 to i64
  %17 = getelementptr inbounds %struct.FormData_pg_attribute, ptr %14, i64 %16
  call void @llvm.lifetime.end.p0(i64 8, ptr %5) #9
  ret ptr %17
}

; Function Attrs: inlinehint nounwind uwtable
define internal ptr @newNode(i64 noundef %0, i32 noundef %1) #2 {
  %3 = alloca i64, align 8
  %4 = alloca i32, align 4
  %5 = alloca ptr, align 8
  store i64 %0, ptr %3, align 8
  store i32 %1, ptr %4, align 4
  call void @llvm.lifetime.start.p0(i64 8, ptr %5) #9
  %6 = load i64, ptr %3, align 8
  %7 = call ptr @palloc0(i64 noundef %6)
  store ptr %7, ptr %5, align 8
  %8 = load i32, ptr %4, align 4
  %9 = load ptr, ptr %5, align 8
  %10 = getelementptr inbounds nuw %struct.Node, ptr %9, i32 0, i32 0
  store i32 %8, ptr %10, align 4
  %11 = load ptr, ptr %5, align 8
  call void @llvm.lifetime.end.p0(i64 8, ptr %5) #9
  ret ptr %11
}

; Function Attrs: nounwind uwtable
define dso_local ptr @ExecInitTableFuncScan(ptr noundef %0, ptr noundef %1, i32 noundef %2) #0 {
  %4 = alloca ptr, align 8
  %5 = alloca ptr, align 8
  %6 = alloca i32, align 4
  %7 = alloca ptr, align 8
  %8 = alloca ptr, align 8
  %9 = alloca ptr, align 8
  %10 = alloca i32, align 4
  %11 = alloca i32, align 4
  %12 = alloca i32, align 4
  store ptr %0, ptr %4, align 8
  store ptr %1, ptr %5, align 8
  store i32 %2, ptr %6, align 4
  call void @llvm.lifetime.start.p0(i64 8, ptr %7) #9
  call void @llvm.lifetime.start.p0(i64 8, ptr %8) #9
  %13 = load ptr, ptr %4, align 8
  %14 = getelementptr inbounds nuw %struct.TableFuncScan, ptr %13, i32 0, i32 1
  %15 = load ptr, ptr %14, align 8
  store ptr %15, ptr %8, align 8
  call void @llvm.lifetime.start.p0(i64 8, ptr %9) #9
  call void @llvm.lifetime.start.p0(i64 4, ptr %10) #9
  %16 = call ptr @newNode(i64 noundef 352, i32 noundef 413)
  store ptr %16, ptr %7, align 8
  %17 = load ptr, ptr %4, align 8
  %18 = load ptr, ptr %7, align 8
  %19 = getelementptr inbounds nuw %struct.TableFuncScanState, ptr %18, i32 0, i32 0
  %20 = getelementptr inbounds nuw %struct.ScanState, ptr %19, i32 0, i32 0
  %21 = getelementptr inbounds nuw %struct.PlanState, ptr %20, i32 0, i32 1
  store ptr %17, ptr %21, align 8
  %22 = load ptr, ptr %5, align 8
  %23 = load ptr, ptr %7, align 8
  %24 = getelementptr inbounds nuw %struct.TableFuncScanState, ptr %23, i32 0, i32 0
  %25 = getelementptr inbounds nuw %struct.ScanState, ptr %24, i32 0, i32 0
  %26 = getelementptr inbounds nuw %struct.PlanState, ptr %25, i32 0, i32 2
  store ptr %22, ptr %26, align 8
  %27 = load ptr, ptr %7, align 8
  %28 = getelementptr inbounds nuw %struct.TableFuncScanState, ptr %27, i32 0, i32 0
  %29 = getelementptr inbounds nuw %struct.ScanState, ptr %28, i32 0, i32 0
  %30 = getelementptr inbounds nuw %struct.PlanState, ptr %29, i32 0, i32 3
  store ptr @ExecTableFuncScan, ptr %30, align 8
  %31 = load ptr, ptr %5, align 8
  %32 = load ptr, ptr %7, align 8
  %33 = getelementptr inbounds nuw %struct.TableFuncScanState, ptr %32, i32 0, i32 0
  %34 = getelementptr inbounds nuw %struct.ScanState, ptr %33, i32 0, i32 0
  call void @ExecAssignExprContext(ptr noundef %31, ptr noundef %34)
  %35 = load ptr, ptr %8, align 8
  %36 = getelementptr inbounds nuw %struct.TableFunc, ptr %35, i32 0, i32 6
  %37 = load ptr, ptr %36, align 8
  %38 = load ptr, ptr %8, align 8
  %39 = getelementptr inbounds nuw %struct.TableFunc, ptr %38, i32 0, i32 7
  %40 = load ptr, ptr %39, align 8
  %41 = load ptr, ptr %8, align 8
  %42 = getelementptr inbounds nuw %struct.TableFunc, ptr %41, i32 0, i32 8
  %43 = load ptr, ptr %42, align 8
  %44 = load ptr, ptr %8, align 8
  %45 = getelementptr inbounds nuw %struct.TableFunc, ptr %44, i32 0, i32 9
  %46 = load ptr, ptr %45, align 8
  %47 = call ptr @BuildDescFromLists(ptr noundef %37, ptr noundef %40, ptr noundef %43, ptr noundef %46)
  store ptr %47, ptr %9, align 8
  %48 = load ptr, ptr %5, align 8
  %49 = load ptr, ptr %7, align 8
  %50 = getelementptr inbounds nuw %struct.TableFuncScanState, ptr %49, i32 0, i32 0
  %51 = load ptr, ptr %9, align 8
  call void @ExecInitScanTupleSlot(ptr noundef %48, ptr noundef %50, ptr noundef %51, ptr noundef @TTSOpsMinimalTuple)
  %52 = load ptr, ptr %7, align 8
  %53 = getelementptr inbounds nuw %struct.TableFuncScanState, ptr %52, i32 0, i32 0
  %54 = getelementptr inbounds nuw %struct.ScanState, ptr %53, i32 0, i32 0
  call void @ExecInitResultTypeTL(ptr noundef %54)
  %55 = load ptr, ptr %7, align 8
  %56 = getelementptr inbounds nuw %struct.TableFuncScanState, ptr %55, i32 0, i32 0
  call void @ExecAssignScanProjectionInfo(ptr noundef %56)
  %57 = load ptr, ptr %4, align 8
  %58 = getelementptr inbounds nuw %struct.TableFuncScan, ptr %57, i32 0, i32 0
  %59 = getelementptr inbounds nuw %struct.Scan, ptr %58, i32 0, i32 0
  %60 = getelementptr inbounds nuw %struct.Plan, ptr %59, i32 0, i32 11
  %61 = load ptr, ptr %60, align 8
  %62 = load ptr, ptr %7, align 8
  %63 = getelementptr inbounds nuw %struct.TableFuncScanState, ptr %62, i32 0, i32 0
  %64 = getelementptr inbounds nuw %struct.ScanState, ptr %63, i32 0, i32 0
  %65 = call ptr @ExecInitQual(ptr noundef %61, ptr noundef %64)
  %66 = load ptr, ptr %7, align 8
  %67 = getelementptr inbounds nuw %struct.TableFuncScanState, ptr %66, i32 0, i32 0
  %68 = getelementptr inbounds nuw %struct.ScanState, ptr %67, i32 0, i32 0
  %69 = getelementptr inbounds nuw %struct.PlanState, ptr %68, i32 0, i32 8
  store ptr %65, ptr %69, align 8
  %70 = load ptr, ptr %8, align 8
  %71 = getelementptr inbounds nuw %struct.TableFunc, ptr %70, i32 0, i32 1
  %72 = load i32, ptr %71, align 4
  %73 = icmp eq i32 %72, 0
  %74 = select i1 %73, ptr @XmlTableRoutine, ptr @JsonbTableRoutine
  %75 = load ptr, ptr %7, align 8
  %76 = getelementptr inbounds nuw %struct.TableFuncScanState, ptr %75, i32 0, i32 11
  store ptr %74, ptr %76, align 8
  br label %77

77:                                               ; preds = %3
  br label %78

78:                                               ; preds = %77
  br label %79

79:                                               ; preds = %78
  store i32 1, ptr %11, align 4
  %80 = load ptr, ptr @CurrentMemoryContext, align 8
  %81 = call ptr @AllocSetContextCreateInternal(ptr noundef %80, ptr noundef @.str, i64 noundef 0, i64 noundef 8192, i64 noundef 8388608)
  %82 = load ptr, ptr %7, align 8
  %83 = getelementptr inbounds nuw %struct.TableFuncScanState, ptr %82, i32 0, i32 15
  store ptr %81, ptr %83, align 8
  %84 = load ptr, ptr %7, align 8
  %85 = getelementptr inbounds nuw %struct.TableFuncScanState, ptr %84, i32 0, i32 10
  store ptr null, ptr %85, align 8
  %86 = load ptr, ptr %8, align 8
  %87 = getelementptr inbounds nuw %struct.TableFunc, ptr %86, i32 0, i32 3
  %88 = load ptr, ptr %87, align 8
  %89 = load ptr, ptr %7, align 8
  %90 = getelementptr inbounds nuw %struct.TableFuncScanState, ptr %89, i32 0, i32 7
  store ptr %88, ptr %90, align 8
  %91 = load ptr, ptr %8, align 8
  %92 = getelementptr inbounds nuw %struct.TableFunc, ptr %91, i32 0, i32 2
  %93 = load ptr, ptr %92, align 8
  %94 = load ptr, ptr %7, align 8
  %95 = call ptr @ExecInitExprList(ptr noundef %93, ptr noundef %94)
  %96 = load ptr, ptr %7, align 8
  %97 = getelementptr inbounds nuw %struct.TableFuncScanState, ptr %96, i32 0, i32 8
  store ptr %95, ptr %97, align 8
  %98 = load ptr, ptr %8, align 8
  %99 = getelementptr inbounds nuw %struct.TableFunc, ptr %98, i32 0, i32 4
  %100 = load ptr, ptr %99, align 8
  %101 = load ptr, ptr %7, align 8
  %102 = call ptr @ExecInitExpr(ptr noundef %100, ptr noundef %101)
  %103 = load ptr, ptr %7, align 8
  %104 = getelementptr inbounds nuw %struct.TableFuncScanState, ptr %103, i32 0, i32 1
  store ptr %102, ptr %104, align 8
  %105 = load ptr, ptr %8, align 8
  %106 = getelementptr inbounds nuw %struct.TableFunc, ptr %105, i32 0, i32 5
  %107 = load ptr, ptr %106, align 8
  %108 = load ptr, ptr %7, align 8
  %109 = call ptr @ExecInitExpr(ptr noundef %107, ptr noundef %108)
  %110 = load ptr, ptr %7, align 8
  %111 = getelementptr inbounds nuw %struct.TableFuncScanState, ptr %110, i32 0, i32 2
  store ptr %109, ptr %111, align 8
  %112 = load ptr, ptr %8, align 8
  %113 = getelementptr inbounds nuw %struct.TableFunc, ptr %112, i32 0, i32 10
  %114 = load ptr, ptr %113, align 8
  %115 = load ptr, ptr %7, align 8
  %116 = call ptr @ExecInitExprList(ptr noundef %114, ptr noundef %115)
  %117 = load ptr, ptr %7, align 8
  %118 = getelementptr inbounds nuw %struct.TableFuncScanState, ptr %117, i32 0, i32 3
  store ptr %116, ptr %118, align 8
  %119 = load ptr, ptr %8, align 8
  %120 = getelementptr inbounds nuw %struct.TableFunc, ptr %119, i32 0, i32 11
  %121 = load ptr, ptr %120, align 8
  %122 = load ptr, ptr %7, align 8
  %123 = call ptr @ExecInitExprList(ptr noundef %121, ptr noundef %122)
  %124 = load ptr, ptr %7, align 8
  %125 = getelementptr inbounds nuw %struct.TableFuncScanState, ptr %124, i32 0, i32 4
  store ptr %123, ptr %125, align 8
  %126 = load ptr, ptr %8, align 8
  %127 = getelementptr inbounds nuw %struct.TableFunc, ptr %126, i32 0, i32 12
  %128 = load ptr, ptr %127, align 8
  %129 = load ptr, ptr %7, align 8
  %130 = call ptr @ExecInitExprList(ptr noundef %128, ptr noundef %129)
  %131 = load ptr, ptr %7, align 8
  %132 = getelementptr inbounds nuw %struct.TableFuncScanState, ptr %131, i32 0, i32 5
  store ptr %130, ptr %132, align 8
  %133 = load ptr, ptr %8, align 8
  %134 = getelementptr inbounds nuw %struct.TableFunc, ptr %133, i32 0, i32 13
  %135 = load ptr, ptr %134, align 8
  %136 = load ptr, ptr %7, align 8
  %137 = call ptr @ExecInitExprList(ptr noundef %135, ptr noundef %136)
  %138 = load ptr, ptr %7, align 8
  %139 = getelementptr inbounds nuw %struct.TableFuncScanState, ptr %138, i32 0, i32 6
  store ptr %137, ptr %139, align 8
  %140 = load ptr, ptr %8, align 8
  %141 = getelementptr inbounds nuw %struct.TableFunc, ptr %140, i32 0, i32 14
  %142 = load ptr, ptr %141, align 8
  %143 = load ptr, ptr %7, align 8
  %144 = getelementptr inbounds nuw %struct.TableFuncScanState, ptr %143, i32 0, i32 9
  store ptr %142, ptr %144, align 8
  %145 = load ptr, ptr %9, align 8
  %146 = getelementptr inbounds nuw %struct.TupleDescData, ptr %145, i32 0, i32 0
  %147 = load i32, ptr %146, align 8
  %148 = sext i32 %147 to i64
  %149 = mul i64 48, %148
  %150 = call ptr @palloc(i64 noundef %149)
  %151 = load ptr, ptr %7, align 8
  %152 = getelementptr inbounds nuw %struct.TableFuncScanState, ptr %151, i32 0, i32 12
  store ptr %150, ptr %152, align 8
  %153 = load ptr, ptr %9, align 8
  %154 = getelementptr inbounds nuw %struct.TupleDescData, ptr %153, i32 0, i32 0
  %155 = load i32, ptr %154, align 8
  %156 = sext i32 %155 to i64
  %157 = mul i64 4, %156
  %158 = call ptr @palloc(i64 noundef %157)
  %159 = load ptr, ptr %7, align 8
  %160 = getelementptr inbounds nuw %struct.TableFuncScanState, ptr %159, i32 0, i32 13
  store ptr %158, ptr %160, align 8
  store i32 0, ptr %10, align 4
  br label %161

161:                                              ; preds = %186, %79
  %162 = load i32, ptr %10, align 4
  %163 = load ptr, ptr %9, align 8
  %164 = getelementptr inbounds nuw %struct.TupleDescData, ptr %163, i32 0, i32 0
  %165 = load i32, ptr %164, align 8
  %166 = icmp slt i32 %162, %165
  br i1 %166, label %167, label %189

167:                                              ; preds = %161
  call void @llvm.lifetime.start.p0(i64 4, ptr %12) #9
  %168 = load ptr, ptr %9, align 8
  %169 = load i32, ptr %10, align 4
  %170 = call ptr @TupleDescAttr(ptr noundef %168, i32 noundef %169)
  %171 = getelementptr inbounds nuw %struct.FormData_pg_attribute, ptr %170, i32 0, i32 2
  %172 = load i32, ptr %171, align 4
  %173 = load ptr, ptr %7, align 8
  %174 = getelementptr inbounds nuw %struct.TableFuncScanState, ptr %173, i32 0, i32 13
  %175 = load ptr, ptr %174, align 8
  %176 = load i32, ptr %10, align 4
  %177 = sext i32 %176 to i64
  %178 = getelementptr inbounds i32, ptr %175, i64 %177
  call void @getTypeInputInfo(i32 noundef %172, ptr noundef %12, ptr noundef %178)
  %179 = load i32, ptr %12, align 4
  %180 = load ptr, ptr %7, align 8
  %181 = getelementptr inbounds nuw %struct.TableFuncScanState, ptr %180, i32 0, i32 12
  %182 = load ptr, ptr %181, align 8
  %183 = load i32, ptr %10, align 4
  %184 = sext i32 %183 to i64
  %185 = getelementptr inbounds %struct.FmgrInfo, ptr %182, i64 %184
  call void @fmgr_info(i32 noundef %179, ptr noundef %185)
  call void @llvm.lifetime.end.p0(i64 4, ptr %12) #9
  br label %186

186:                                              ; preds = %167
  %187 = load i32, ptr %10, align 4
  %188 = add i32 %187, 1
  store i32 %188, ptr %10, align 4
  br label %161, !llvm.loop !4

189:                                              ; preds = %161
  %190 = load ptr, ptr %7, align 8
  call void @llvm.lifetime.end.p0(i64 4, ptr %10) #9
  call void @llvm.lifetime.end.p0(i64 8, ptr %9) #9
  call void @llvm.lifetime.end.p0(i64 8, ptr %8) #9
  call void @llvm.lifetime.end.p0(i64 8, ptr %7) #9
  ret ptr %190
}