; Function Attrs: nounwind uwtable
define dso_local noundef ptr @ExecInitTableFuncScan(ptr noundef %0, ptr noundef %1, i32 noundef %2) local_unnamed_addr #0 {
  %4 = alloca i32, align 4
  %5 = getelementptr inbounds nuw i8, ptr %0, i64 112
  %6 = load ptr, ptr %5, align 8
  %7 = tail call noundef ptr @palloc0(i64 noundef 352) #8
  store i32 413, ptr %7, align 4
  %8 = getelementptr inbounds nuw i8, ptr %7, i64 8
  store ptr %0, ptr %8, align 8
  %9 = getelementptr inbounds nuw i8, ptr %7, i64 16
  store ptr %1, ptr %9, align 8
  %10 = getelementptr inbounds nuw i8, ptr %7, i64 24
  store ptr @ExecTableFuncScan, ptr %10, align 8
  tail call void @ExecAssignExprContext(ptr noundef %1, ptr noundef %7) #8
  %11 = getelementptr inbounds nuw i8, ptr %6, i64 40
  %12 = load ptr, ptr %11, align 8
  %13 = getelementptr inbounds nuw i8, ptr %6, i64 48
  %14 = load ptr, ptr %13, align 8
  %15 = getelementptr inbounds nuw i8, ptr %6, i64 56
  %16 = load ptr, ptr %15, align 8
  %17 = getelementptr inbounds nuw i8, ptr %6, i64 64
  %18 = load ptr, ptr %17, align 8
  %19 = tail call ptr @BuildDescFromLists(ptr noundef %12, ptr noundef %14, ptr noundef %16, ptr noundef %18) #8
  tail call void @ExecInitScanTupleSlot(ptr noundef %1, ptr noundef %7, ptr noundef %19, ptr noundef nonnull @TTSOpsMinimalTuple) #8
  tail call void @ExecInitResultTypeTL(ptr noundef %7) #8
  tail call void @ExecAssignScanProjectionInfo(ptr noundef %7) #8
  %20 = getelementptr inbounds nuw i8, ptr %0, i64 56
  %21 = load ptr, ptr %20, align 8
  %22 = tail call ptr @ExecInitQual(ptr noundef %21, ptr noundef %7) #8
  %23 = getelementptr inbounds nuw i8, ptr %7, i64 64
  store ptr %22, ptr %23, align 8
  %24 = getelementptr inbounds nuw i8, ptr %6, i64 4
  %25 = load i32, ptr %24, align 4
  %26 = icmp eq i32 %25, 0
  %27 = select i1 %26, ptr @XmlTableRoutine, ptr @JsonbTableRoutine
  %28 = getelementptr inbounds nuw i8, ptr %7, i64 304
  store ptr %27, ptr %28, align 8
  %29 = load ptr, ptr @CurrentMemoryContext, align 8
  %30 = tail call ptr @AllocSetContextCreateInternal(ptr noundef %29, ptr noundef nonnull @.str, i64 noundef 0, i64 noundef 8192, i64 noundef 8388608) #8
  %31 = getelementptr inbounds nuw i8, ptr %7, i64 336
  store ptr %30, ptr %31, align 8
  %32 = getelementptr inbounds nuw i8, ptr %7, i64 296
  store ptr null, ptr %32, align 8
  %33 = getelementptr inbounds nuw i8, ptr %6, i64 16
  %34 = load ptr, ptr %33, align 8
  %35 = getelementptr inbounds nuw i8, ptr %7, i64 272
  store ptr %34, ptr %35, align 8
  %36 = getelementptr inbounds nuw i8, ptr %6, i64 8
  %37 = load ptr, ptr %36, align 8
  %38 = tail call ptr @ExecInitExprList(ptr noundef %37, ptr noundef %7) #8
  %39 = getelementptr inbounds nuw i8, ptr %7, i64 280
  store ptr %38, ptr %39, align 8
  %40 = getelementptr inbounds nuw i8, ptr %6, i64 24
  %41 = load ptr, ptr %40, align 8
  %42 = tail call ptr @ExecInitExpr(ptr noundef %41, ptr noundef %7) #8
  %43 = getelementptr inbounds nuw i8, ptr %7, i64 224
  store ptr %42, ptr %43, align 8
  %44 = getelementptr inbounds nuw i8, ptr %6, i64 32
  %45 = load ptr, ptr %44, align 8
  %46 = tail call ptr @ExecInitExpr(ptr noundef %45, ptr noundef %7) #8
  %47 = getelementptr inbounds nuw i8, ptr %7, i64 232
  store ptr %46, ptr %47, align 8
  %48 = getelementptr inbounds nuw i8, ptr %6, i64 72
  %49 = load ptr, ptr %48, align 8
  %50 = tail call ptr @ExecInitExprList(ptr noundef %49, ptr noundef %7) #8
  %51 = getelementptr inbounds nuw i8, ptr %7, i64 240
  store ptr %50, ptr %51, align 8
  %52 = getelementptr inbounds nuw i8, ptr %6, i64 80
  %53 = load ptr, ptr %52, align 8
  %54 = tail call ptr @ExecInitExprList(ptr noundef %53, ptr noundef %7) #8
  %55 = getelementptr inbounds nuw i8, ptr %7, i64 248
  store ptr %54, ptr %55, align 8
  %56 = getelementptr inbounds nuw i8, ptr %6, i64 88
  %57 = load ptr, ptr %56, align 8
  %58 = tail call ptr @ExecInitExprList(ptr noundef %57, ptr noundef %7) #8
  %59 = getelementptr inbounds nuw i8, ptr %7, i64 256
  store ptr %58, ptr %59, align 8
  %60 = getelementptr inbounds nuw i8, ptr %6, i64 96
  %61 = load ptr, ptr %60, align 8
  %62 = tail call ptr @ExecInitExprList(ptr noundef %61, ptr noundef %7) #8
  %63 = getelementptr inbounds nuw i8, ptr %7, i64 264
  store ptr %62, ptr %63, align 8
  %64 = getelementptr inbounds nuw i8, ptr %6, i64 104
  %65 = load ptr, ptr %64, align 8
  %66 = getelementptr inbounds nuw i8, ptr %7, i64 288
  store ptr %65, ptr %66, align 8
  %67 = load i32, ptr %19, align 8
  %68 = sext i32 %67 to i64
  %69 = mul nsw i64 %68, 48
  %70 = tail call ptr @palloc(i64 noundef %69) #8
  %71 = getelementptr inbounds nuw i8, ptr %7, i64 312
  store ptr %70, ptr %71, align 8
  %72 = load i32, ptr %19, align 8
  %73 = sext i32 %72 to i64
  %74 = shl nsw i64 %73, 2
  %75 = tail call ptr @palloc(i64 noundef %74) #8
  %76 = getelementptr inbounds nuw i8, ptr %7, i64 320
  store ptr %75, ptr %76, align 8
  %invariant.gep = getelementptr i8, ptr %19, i64 92
  %77 = load i32, ptr %19, align 8
  %78 = icmp sgt i32 %77, 0
  br i1 %78, label %.lr.ph, label %._crit_edge

.lr.ph:                                           ; preds = %3, %.lr.ph
  %79 = phi i32 [ %89, %.lr.ph ], [ %77, %3 ]
  %indvars.iv = phi i64 [ %indvars.iv.next, %.lr.ph ], [ 0, %3 ]
  call void @llvm.lifetime.start.p0(i64 4, ptr nonnull %4) #8
  %80 = sext i32 %79 to i64
  %81 = shl nsw i64 %80, 4
  %.idx = mul nuw nsw i64 %indvars.iv, 100
  %gep = getelementptr i8, ptr %invariant.gep, i64 %81
  %82 = getelementptr i8, ptr %gep, i64 %.idx
  %83 = load i32, ptr %82, align 4
  %84 = load ptr, ptr %76, align 8
  %85 = getelementptr inbounds nuw i32, ptr %84, i64 %indvars.iv
  call void @getTypeInputInfo(i32 noundef %83, ptr noundef nonnull %4, ptr noundef %85) #8
  %86 = load i32, ptr %4, align 4
  %87 = load ptr, ptr %71, align 8
  %88 = getelementptr inbounds nuw %struct.FmgrInfo, ptr %87, i64 %indvars.iv
  call void @fmgr_info(i32 noundef %86, ptr noundef %88) #8
  call void @llvm.lifetime.end.p0(i64 4, ptr nonnull %4) #8
  %indvars.iv.next = add nuw nsw i64 %indvars.iv, 1
  %89 = load i32, ptr %19, align 8
  %90 = sext i32 %89 to i64
  %91 = icmp slt i64 %indvars.iv.next, %90
  br i1 %91, label %.lr.ph, label %._crit_edge, !llvm.loop !4

._crit_edge:                                      ; preds = %.lr.ph, %3
  ret ptr %7
}